; Function Attrs: mustprogress uwtable
define dso_local noundef i32 @_Z24CreateProgramFromStringsPKcS0_(ptr noundef %0, ptr noundef %1) local_unnamed_addr #0 {
  %3 = alloca [1 x ptr], align 8
  %4 = alloca i32, align 4
  %5 = alloca [1 x ptr], align 8
  %6 = alloca i32, align 4
  %7 = alloca i32, align 4
  %8 = load ptr, ptr @glad_glCreateShader, align 8, !tbaa !4
  %9 = tail call i32 %8(i32 noundef 35633)
  call void @llvm.lifetime.start.p0(i64 8, ptr nonnull %5) #6
  store ptr %0, ptr %5, align 8, !tbaa !10
  %10 = load ptr, ptr @glad_glShaderSource, align 8, !tbaa !4
  call void %10(i32 noundef %9, i32 noundef 1, ptr noundef nonnull %5, ptr noundef null)
  %11 = load ptr, ptr @glad_glCompileShader, align 8, !tbaa !4
  call void %11(i32 noundef %9)
  call void @llvm.lifetime.start.p0(i64 4, ptr nonnull %6) #6
  store i32 0, ptr %6, align 4, !tbaa !8
  %12 = load ptr, ptr @glad_glGetShaderiv, align 8, !tbaa !4
  call void %12(i32 noundef %9, i32 noundef 35713, ptr noundef nonnull %6)
  %13 = load i32, ptr %6, align 4, !tbaa !8
  %14 = icmp eq i32 %13, 0
  br i1 %14, label %_ZL23sCreateShaderFromStringPKcj.exit.thread, label %_ZL23sCreateShaderFromStringPKcj.exit

_ZL23sCreateShaderFromStringPKcj.exit.thread:     ; preds = %2
  %15 = call i32 (ptr, ...) @printf(ptr noundef nonnull dereferenceable(1) @.str.10, i32 noundef 35633)
  call void @_Z10PrintLogGLj(i32 noundef %9)
  %16 = load ptr, ptr @glad_glDeleteShader, align 8, !tbaa !4
  call void %16(i32 noundef %9)
  call void @llvm.lifetime.end.p0(i64 4, ptr nonnull %6) #6
  call void @llvm.lifetime.end.p0(i64 8, ptr nonnull %5) #6
  br label %44

_ZL23sCreateShaderFromStringPKcj.exit:            ; preds = %2
  call void @llvm.lifetime.end.p0(i64 4, ptr nonnull %6) #6
  call void @llvm.lifetime.end.p0(i64 8, ptr nonnull %5) #6
  %17 = icmp eq i32 %9, 0
  br i1 %17, label %44, label %18

18:                                               ; preds = %_ZL23sCreateShaderFromStringPKcj.exit
  %19 = load ptr, ptr @glad_glCreateShader, align 8, !tbaa !4
  %20 = call i32 %19(i32 noundef 35632)
  call void @llvm.lifetime.start.p0(i64 8, ptr nonnull %3) #6
  store ptr %1, ptr %3, align 8, !tbaa !10
  %21 = load ptr, ptr @glad_glShaderSource, align 8, !tbaa !4
  call void %21(i32 noundef %20, i32 noundef 1, ptr noundef nonnull %3, ptr noundef null)
  %22 = load ptr, ptr @glad_glCompileShader, align 8, !tbaa !4
  call void %22(i32 noundef %20)
  call void @llvm.lifetime.start.p0(i64 4, ptr nonnull %4) #6
  store i32 0, ptr %4, align 4, !tbaa !8
  %23 = load ptr, ptr @glad_glGetShaderiv, align 8, !tbaa !4
  call void %23(i32 noundef %20, i32 noundef 35713, ptr noundef nonnull %4)
  %24 = load i32, ptr %4, align 4, !tbaa !8
  %25 = icmp eq i32 %24, 0
  br i1 %25, label %_ZL23sCreateShaderFromStringPKcj.exit17.thread, label %_ZL23sCreateShaderFromStringPKcj.exit17

_ZL23sCreateShaderFromStringPKcj.exit17.thread:   ; preds = %18
  %26 = call i32 (ptr, ...) @printf(ptr noundef nonnull dereferenceable(1) @.str.10, i32 noundef 35632)
  call void @_Z10PrintLogGLj(i32 noundef %20)
  %27 = load ptr, ptr @glad_glDeleteShader, align 8, !tbaa !4
  call void %27(i32 noundef %20)
  call void @llvm.lifetime.end.p0(i64 4, ptr nonnull %4) #6
  call void @llvm.lifetime.end.p0(i64 8, ptr nonnull %3) #6
  br label %44

_ZL23sCreateShaderFromStringPKcj.exit17:          ; preds = %18
  call void @llvm.lifetime.end.p0(i64 4, ptr nonnull %4) #6
  call void @llvm.lifetime.end.p0(i64 8, ptr nonnull %3) #6
  %28 = icmp eq i32 %20, 0
  br i1 %28, label %44, label %29

29:                                               ; preds = %_ZL23sCreateShaderFromStringPKcj.exit17
  %30 = load ptr, ptr @glad_glCreateProgram, align 8, !tbaa !4
  %31 = call i32 %30()
  %32 = load ptr, ptr @glad_glAttachShader, align 8, !tbaa !4
  call void %32(i32 noundef %31, i32 noundef %9)
  %33 = load ptr, ptr @glad_glAttachShader, align 8, !tbaa !4
  call void %33(i32 noundef %31, i32 noundef %20)
  %34 = load ptr, ptr @glad_glLinkProgram, align 8, !tbaa !4
  call void %34(i32 noundef %31)
  call void @llvm.lifetime.start.p0(i64 4, ptr nonnull %7) #6
  store i32 0, ptr %7, align 4, !tbaa !8
  %35 = load ptr, ptr @glad_glGetProgramiv, align 8, !tbaa !4
  call void %35(i32 noundef %31, i32 noundef 35714, ptr noundef nonnull %7)
  %36 = load i32, ptr %7, align 4, !tbaa !8
  %37 = icmp eq i32 %36, 0
  br i1 %37, label %38, label %40

38:                                               ; preds = %29
  %39 = call i32 (ptr, ...) @printf(ptr noundef nonnull dereferenceable(1) @.str.9)
  call void @_Z10PrintLogGLj(i32 noundef %31)
  br label %43

40:                                               ; preds = %29
  %41 = load ptr, ptr @glad_glDeleteShader, align 8, !tbaa !4
  call void %41(i32 noundef %9)
  %42 = load ptr, ptr @glad_glDeleteShader, align 8, !tbaa !4
  call void %42(i32 noundef %20)
  br label %43

43:                                               ; preds = %40, %38
  %.2 = phi i32 [ 0, %38 ], [ %31, %40 ]
  call void @llvm.lifetime.end.p0(i64 4, ptr nonnull %7) #6
  br label %44

44:                                               ; preds = %_ZL23sCreateShaderFromStringPKcj.exit17.thread, %_ZL23sCreateShaderFromStringPKcj.exit.thread, %43, %_ZL23sCreateShaderFromStringPKcj.exit17, %_ZL23sCreateShaderFromStringPKcj.exit
  %.0 = phi i32 [ 0, %_ZL23sCreateShaderFromStringPKcj.exit ], [ %.2, %43 ], [ 0, %_ZL23sCreateShaderFromStringPKcj.exit17 ], [ 0, %_ZL23sCreateShaderFromStringPKcj.exit.thread ], [ 0, %_ZL23sCreateShaderFromStringPKcj.exit17.thread ]
  ret i32 %.0
}